target datalayout = "e-m:e-p270:32:32-p271:32:32-p272:64:64-i64:64-i128:128-f80:128-n8:16:32:64-S128"
target triple = "x86_64-pc-linux-gnu"

; Function Attrs: mustprogress uwtable
define hidden noundef ptr @_ZN10__cxxabiv122__calloc_with_fallbackEmm(i64 noundef %0, i64 noundef %1) #0 {
  %3 = alloca ptr, align 8
  %4 = alloca i64, align 8
  %5 = alloca i64, align 8
  %6 = alloca ptr, align 8
  %7 = alloca i32, align 4
  store i64 %0, ptr %4, align 8, !tbaa !5
  store i64 %1, ptr %5, align 8, !tbaa !5
  call void @llvm.lifetime.start.p0(i64 8, ptr %6) #11
  %8 = load i64, ptr %4, align 8, !tbaa !5
  %9 = load i64, ptr %5, align 8, !tbaa !5
  %10 = call noalias ptr @calloc(i64 noundef %8, i64 noundef %9) #14
  store ptr %10, ptr %6, align 8, !tbaa !9
  %11 = load ptr, ptr %6, align 8, !tbaa !9
  %12 = icmp ne ptr null, %11
  br i1 %12, label %13, label %15

13:                                               ; preds = %2
  %14 = load ptr, ptr %6, align 8, !tbaa !9
  store ptr %14, ptr %3, align 8
  store i32 1, ptr %7, align 4
  br label %29

15:                                               ; preds = %2
  %16 = load i64, ptr %5, align 8, !tbaa !5
  %17 = load i64, ptr %4, align 8, !tbaa !5
  %18 = mul i64 %16, %17
  %19 = call noundef ptr @_ZN12_GLOBAL__N_115fallback_mallocEm(i64 noundef %18)
  store ptr %19, ptr %6, align 8, !tbaa !9
  %20 = load ptr, ptr %6, align 8, !tbaa !9
  %21 = icmp ne ptr null, %20
  br i1 %21, label %22, label %27

22:                                               ; preds = %15
  %23 = load ptr, ptr %6, align 8, !tbaa !9
  %24 = load i64, ptr %5, align 8, !tbaa !5
  %25 = load i64, ptr %4, align 8, !tbaa !5
  %26 = mul i64 %24, %25
  call void @llvm.memset.p0.i64(ptr align 1 %23, i8 0, i64 %26, i1 false)
  br label %27

27:                                               ; preds = %22, %15
  %28 = load ptr, ptr %6, align 8, !tbaa !9
  store ptr %28, ptr %3, align 8
  store i32 1, ptr %7, align 4
  br label %29

29:                                               ; preds = %27, %13
  call void @llvm.lifetime.end.p0(i64 8, ptr %6) #11
  %30 = load ptr, ptr %3, align 8
  ret ptr %30
}