; Function Attrs: mustprogress uwtable
define hidden noundef ptr @_ZN10__cxxabiv122__calloc_with_fallbackEmm(i64 noundef %0, i64 noundef %1) local_unnamed_addr #0 {
  %3 = tail call noalias ptr @calloc(i64 noundef %0, i64 noundef %1) #13
  %.not = icmp eq ptr %3, null
  br i1 %.not, label %4, label %8

4:                                                ; preds = %2
  %5 = mul i64 %1, %0
  %6 = tail call fastcc noundef ptr @_ZN12_GLOBAL__N_115fallback_mallocEm(i64 noundef %5)
  %.not13 = icmp eq ptr %6, null
  br i1 %.not13, label %8, label %7

7:                                                ; preds = %4
  tail call void @llvm.memset.p0.i64(ptr nonnull align 1 %6, i8 0, i64 %5, i1 false)
  br label %8

8:                                                ; preds = %4, %7, %2
  %.0 = phi ptr [ %3, %2 ], [ %6, %7 ], [ null, %4 ]
  ret ptr %.0
}